target datalayout = "e-m:e-p270:32:32-p271:32:32-p272:64:64-i64:64-i128:128-f80:128-n8:16:32:64-S128"
target triple = "x86_64-pc-linux-gnu"

%struct._lv_fs_drv_t = type { i8, i32, ptr, ptr, ptr, ptr, ptr, ptr, ptr, ptr, ptr, ptr, ptr }
%struct.lv_fs_file_t = type { ptr, ptr, ptr }
%struct._lv_fs_file_cache_t = type { i32, i32, i32, ptr }

; Function Attrs: nounwind uwtable
define i32 @lv_fs_tell(ptr noundef %0, ptr noundef %1) #0 {
  %3 = alloca i32, align 4
  %4 = alloca ptr, align 8
  %5 = alloca ptr, align 8
  %6 = alloca i32, align 4
  store ptr %0, ptr %4, align 8, !tbaa !6
  store ptr %1, ptr %5, align 8, !tbaa !6
  %7 = load ptr, ptr %4, align 8, !tbaa !6
  %8 = getelementptr inbounds nuw %struct.lv_fs_file_t, ptr %7, i32 0, i32 1
  %9 = load ptr, ptr %8, align 8, !tbaa !18
  %10 = icmp eq ptr %9, null
  br i1 %10, label %11, label %13

11:                                               ; preds = %2
  %12 = load ptr, ptr %5, align 8, !tbaa !6
  store i32 0, ptr %12, align 4, !tbaa !14
  store i32 11, ptr %3, align 4
  br label %59

13:                                               ; preds = %2
  %14 = load ptr, ptr %4, align 8, !tbaa !6
  %15 = getelementptr inbounds nuw %struct.lv_fs_file_t, ptr %14, i32 0, i32 1
  %16 = load ptr, ptr %15, align 8, !tbaa !18
  %17 = getelementptr inbounds nuw %struct._lv_fs_drv_t, ptr %16, i32 0, i32 1
  %18 = load i32, ptr %17, align 4, !tbaa !20
  %19 = icmp eq i32 %18, 0
  br i1 %19, label %20, label %29

20:                                               ; preds = %13
  %21 = load ptr, ptr %4, align 8, !tbaa !6
  %22 = getelementptr inbounds nuw %struct.lv_fs_file_t, ptr %21, i32 0, i32 1
  %23 = load ptr, ptr %22, align 8, !tbaa !18
  %24 = getelementptr inbounds nuw %struct._lv_fs_drv_t, ptr %23, i32 0, i32 8
  %25 = load ptr, ptr %24, align 8, !tbaa !38
  %26 = icmp eq ptr %25, null
  br i1 %26, label %27, label %29

27:                                               ; preds = %20
  %28 = load ptr, ptr %5, align 8, !tbaa !6
  store i32 0, ptr %28, align 4, !tbaa !14
  store i32 9, ptr %3, align 4
  br label %59

29:                                               ; preds = %20, %13
  call void @llvm.lifetime.start.p0(i64 4, ptr %6) #4
  %30 = load ptr, ptr %4, align 8, !tbaa !6
  %31 = getelementptr inbounds nuw %struct.lv_fs_file_t, ptr %30, i32 0, i32 1
  %32 = load ptr, ptr %31, align 8, !tbaa !18
  %33 = getelementptr inbounds nuw %struct._lv_fs_drv_t, ptr %32, i32 0, i32 1
  %34 = load i32, ptr %33, align 4, !tbaa !20
  %35 = icmp ne i32 %34, 0
  br i1 %35, label %36, label %43

36:                                               ; preds = %29
  %37 = load ptr, ptr %4, align 8, !tbaa !6
  %38 = getelementptr inbounds nuw %struct.lv_fs_file_t, ptr %37, i32 0, i32 2
  %39 = load ptr, ptr %38, align 8, !tbaa !23
  %40 = getelementptr inbounds nuw %struct._lv_fs_file_cache_t, ptr %39, i32 0, i32 2
  %41 = load i32, ptr %40, align 8, !tbaa !29
  %42 = load ptr, ptr %5, align 8, !tbaa !6
  store i32 %41, ptr %42, align 4, !tbaa !14
  store i32 0, ptr %6, align 4, !tbaa !14
  br label %57

43:                                               ; preds = %29
  %44 = load ptr, ptr %4, align 8, !tbaa !6
  %45 = getelementptr inbounds nuw %struct.lv_fs_file_t, ptr %44, i32 0, i32 1
  %46 = load ptr, ptr %45, align 8, !tbaa !18
  %47 = getelementptr inbounds nuw %struct._lv_fs_drv_t, ptr %46, i32 0, i32 8
  %48 = load ptr, ptr %47, align 8, !tbaa !38
  %49 = load ptr, ptr %4, align 8, !tbaa !6
  %50 = getelementptr inbounds nuw %struct.lv_fs_file_t, ptr %49, i32 0, i32 1
  %51 = load ptr, ptr %50, align 8, !tbaa !18
  %52 = load ptr, ptr %4, align 8, !tbaa !6
  %53 = getelementptr inbounds nuw %struct.lv_fs_file_t, ptr %52, i32 0, i32 0
  %54 = load ptr, ptr %53, align 8, !tbaa !21
  %55 = load ptr, ptr %5, align 8, !tbaa !6
  %56 = call i32 %48(ptr noundef %51, ptr noundef %54, ptr noundef %55)
  store i32 %56, ptr %6, align 4, !tbaa !14
  br label %57

57:                                               ; preds = %43, %36
  %58 = load i32, ptr %6, align 4, !tbaa !14
  store i32 %58, ptr %3, align 4
  call void @llvm.lifetime.end.p0(i64 4, ptr %6) #4
  br label %59

59:                                               ; preds = %57, %27, %11
  %60 = load i32, ptr %3, align 4
  ret i32 %60
}