; Function Attrs: nounwind uwtable
define i32 @lv_fs_tell(ptr nocapture noundef readonly %0, ptr noundef %1) local_unnamed_addr #0 {
  %3 = getelementptr inbounds nuw i8, ptr %0, i64 8
  %4 = load ptr, ptr %3, align 8, !tbaa !15
  %5 = icmp eq ptr %4, null
  br i1 %5, label %6, label %7

6:                                                ; preds = %2
  store i32 0, ptr %1, align 4, !tbaa !29
  br label %24

7:                                                ; preds = %2
  %8 = getelementptr inbounds nuw i8, ptr %4, i64 4
  %9 = load i32, ptr %8, align 4, !tbaa !17
  %10 = icmp eq i32 %9, 0
  br i1 %10, label %11, label %16

11:                                               ; preds = %7
  %12 = getelementptr inbounds nuw i8, ptr %4, i64 56
  %13 = load ptr, ptr %12, align 8, !tbaa !33
  %14 = icmp eq ptr %13, null
  br i1 %14, label %15, label %21

15:                                               ; preds = %11
  store i32 0, ptr %1, align 4, !tbaa !29
  br label %24

16:                                               ; preds = %7
  %17 = getelementptr inbounds nuw i8, ptr %0, i64 16
  %18 = load ptr, ptr %17, align 8, !tbaa !19
  %19 = getelementptr inbounds nuw i8, ptr %18, i64 8
  %20 = load i32, ptr %19, align 8, !tbaa !25
  store i32 %20, ptr %1, align 4, !tbaa !29
  br label %24

21:                                               ; preds = %11
  %22 = load ptr, ptr %0, align 8, !tbaa !18
  %23 = tail call i32 %13(ptr noundef nonnull %4, ptr noundef %22, ptr noundef %1) #6
  br label %24

24:                                               ; preds = %16, %21, %15, %6
  %.013 = phi i32 [ 11, %6 ], [ 9, %15 ], [ 0, %16 ], [ %23, %21 ]
  ret i32 %.013
}